; Function Attrs: mustprogress uwtable
define internal void @"_ZNSt17_Function_handlerIFN8QuantLib5ArrayERKS1_EZNS0_19ImplicitEulerScheme4stepERS1_ddE3$_1E9_M_invokeERKSt9_Any_dataS3_"(ptr dead_on_unwind noalias writable sret(%"class.QuantLib::Array") align 8 %agg.result, ptr nocapture noundef nonnull readonly align 8 dereferenceable(16) %__functor, ptr noundef nonnull align 8 dereferenceable(16) %__args) #3 align 2 {
entry:
  %0 = load ptr, ptr %__functor, align 8, !tbaa !87, !noalias !89
  %map_.i.i.i = getelementptr inbounds nuw i8, ptr %0, i64 32
  %1 = load ptr, ptr %map_.i.i.i, align 8, !tbaa !32, !noalias !89
  %cmp.not.i.i.i.i = icmp eq ptr %1, null
  br i1 %cmp.not.i.i.i.i, label %cond.false.i.i.i.i, label %"_ZSt10__invoke_rIN8QuantLib5ArrayERZNS0_19ImplicitEulerScheme4stepERS1_ddE3$_1JRKS1_EENSt9enable_ifIX16is_invocable_r_vIT_T0_DpT1_EES9_E4typeEOSA_DpOSB_.exit", !prof !34

cond.false.i.i.i.i:                               ; preds = %entry
  tail call void @_ZN5boost16assertion_failedEPKcS1_S1_l(ptr noundef nonnull @.str.11, ptr noundef nonnull @__PRETTY_FUNCTION__._ZNK5boost10shared_ptrIN8QuantLib20FdmLinearOpCompositeEEptEv, ptr noundef nonnull @.str.12, i64 noundef 784), !noalias !89
  %.pre.i.i.i.i = load ptr, ptr %map_.i.i.i, align 8, !tbaa !32, !noalias !89
  br label %"_ZSt10__invoke_rIN8QuantLib5ArrayERZNS0_19ImplicitEulerScheme4stepERS1_ddE3$_1JRKS1_EENSt9enable_ifIX16is_invocable_r_vIT_T0_DpT1_EES9_E4typeEOSA_DpOSB_.exit"

"_ZSt10__invoke_rIN8QuantLib5ArrayERZNS0_19ImplicitEulerScheme4stepERS1_ddE3$_1JRKS1_EENSt9enable_ifIX16is_invocable_r_vIT_T0_DpT1_EES9_E4typeEOSA_DpOSB_.exit": ; preds = %entry, %cond.false.i.i.i.i
  %2 = phi ptr [ %1, %entry ], [ %.pre.i.i.i.i, %cond.false.i.i.i.i ]
  %3 = getelementptr inbounds nuw i8, ptr %__functor, i64 8
  %4 = load ptr, ptr %3, align 8, !tbaa !96, !noalias !89
  %5 = load double, ptr %4, align 8, !tbaa !55, !noalias !89
  %fneg.i.i.i = fneg double %5
  %6 = load double, ptr %0, align 8, !tbaa !18, !noalias !89
  %mul.i.i.i = fmul double %6, %fneg.i.i.i
  %vtable.i.i.i = load ptr, ptr %2, align 8, !tbaa !14, !noalias !89
  %vfn.i.i.i = getelementptr inbounds i8, ptr %vtable.i.i.i, i64 72
  %7 = load ptr, ptr %vfn.i.i.i, align 8, !noalias !89
  tail call void %7(ptr dead_on_unwind writable sret(%"class.QuantLib::Array") align 8 %agg.result, ptr noundef nonnull align 8 dereferenceable(8) %2, ptr noundef nonnull align 8 dereferenceable(16) %__args, double noundef %mul.i.i.i)
  ret void
}